; Function Attrs: nounwind sspstrong uwtable
define internal i64 @str_uminus(i64 noundef %0) #1 {
  %2 = inttoptr i64 %0 to ptr
  %3 = load i64, ptr %2, align 8, !tbaa !7
  %4 = and i64 %3, 1024
  %.not5 = icmp eq i64 %4, 0
  br i1 %.not5, label %5, label %10

5:                                                ; preds = %1
  %6 = getelementptr inbounds nuw i8, ptr %2, i64 8
  %7 = load i64, ptr %6, align 8, !tbaa !32
  %8 = load i64, ptr @rb_cString, align 8, !tbaa !26
  %9 = icmp eq i64 %7, %8
  br i1 %9, label %15, label %10

10:                                               ; preds = %5, %1
  %11 = tail call i64 @rb_obj_frozen_p(i64 noundef %0) #31
  %.not = icmp eq i64 %11, 0
  br i1 %.not, label %12, label %15

12:                                               ; preds = %10
  %13 = tail call i64 @rb_obj_class(i64 noundef %0) #29
  %14 = tail call fastcc i64 @str_duplicate(i64 noundef %13, i64 noundef %0)
  br label %15

15:                                               ; preds = %12, %10, %5
  %.0 = phi i64 [ %0, %10 ], [ %14, %12 ], [ %0, %5 ]
  %16 = tail call i64 @rb_fstring(i64 noundef %.0)
  ret i64 %16
}